; Function Attrs: inlinehint nounwind uwtable
define internal fastcc range(i32 -32, 1) i32 @pmix_bfrops_base_tma_copy_devdist(ptr noundef nonnull writeonly captures(none) %0, ptr noundef readonly captures(none) %1, ptr noundef %2) unnamed_addr #4 {
  %.not.i.i = icmp eq ptr %2, null
  br i1 %.not.i.i, label %7, label %4

4:                                                ; preds = %3
  %5 = load ptr, ptr %2, align 8, !tbaa !39
  %6 = tail call ptr %5(ptr noundef nonnull %2, i64 noundef 32) #17
  br label %pmix_tma_malloc.exit.i

7:                                                ; preds = %3
  %8 = tail call noalias dereferenceable_or_null(32) ptr @malloc(i64 noundef 32) #18
  br label %pmix_tma_malloc.exit.i

pmix_tma_malloc.exit.i:                           ; preds = %7, %4
  %.0.i.i = phi ptr [ %6, %4 ], [ %8, %7 ]
  %.not.i = icmp eq ptr %.0.i.i, null
  br i1 %.not.i, label %pmix_bfrops_base_tma_device_distance_create.exit.thread, label %.preheader.i.preheader, !prof !29

.preheader.i.preheader:                           ; preds = %pmix_tma_malloc.exit.i
  %9 = getelementptr inbounds nuw i8, ptr %.0.i.i, i64 24
  tail call void @llvm.memset.p0.i64(ptr noundef nonnull align 8 dereferenceable(32) %.0.i.i, i8 0, i64 32, i1 false)
  store i16 -1, ptr %9, align 8, !tbaa !250
  %10 = getelementptr inbounds nuw i8, ptr %.0.i.i, i64 26
  store i16 -1, ptr %10, align 2, !tbaa !251
  %11 = load ptr, ptr %1, align 8, !tbaa !113
  %.not = icmp eq ptr %11, null
  br i1 %.not, label %19, label %12

12:                                               ; preds = %.preheader.i.preheader
  br i1 %.not.i.i, label %17, label %13

13:                                               ; preds = %12
  %14 = getelementptr inbounds nuw i8, ptr %2, i64 24
  %15 = load ptr, ptr %14, align 8, !tbaa !194
  %16 = tail call ptr %15(ptr noundef nonnull %2, ptr noundef nonnull %11) #17
  br label %pmix_tma_strdup.exit

17:                                               ; preds = %12
  %18 = tail call noalias ptr @strdup(ptr noundef nonnull %11) #17
  br label %pmix_tma_strdup.exit

pmix_tma_strdup.exit:                             ; preds = %13, %17
  %.0.i = phi ptr [ %16, %13 ], [ %18, %17 ]
  store ptr %.0.i, ptr %.0.i.i, align 8, !tbaa !113
  br label %19

19:                                               ; preds = %pmix_tma_strdup.exit, %.preheader.i.preheader
  %20 = getelementptr inbounds nuw i8, ptr %1, i64 8
  %21 = load ptr, ptr %20, align 8, !tbaa !115
  %.not21 = icmp eq ptr %21, null
  br i1 %.not21, label %30, label %22

22:                                               ; preds = %19
  br i1 %.not.i.i, label %27, label %23

23:                                               ; preds = %22
  %24 = getelementptr inbounds nuw i8, ptr %2, i64 24
  %25 = load ptr, ptr %24, align 8, !tbaa !194
  %26 = tail call ptr %25(ptr noundef nonnull %2, ptr noundef nonnull %21) #17
  br label %pmix_tma_strdup.exit25

27:                                               ; preds = %22
  %28 = tail call noalias ptr @strdup(ptr noundef nonnull %21) #17
  br label %pmix_tma_strdup.exit25

pmix_tma_strdup.exit25:                           ; preds = %23, %27
  %.0.i24 = phi ptr [ %26, %23 ], [ %28, %27 ]
  %29 = getelementptr inbounds nuw i8, ptr %.0.i.i, i64 8
  store ptr %.0.i24, ptr %29, align 8, !tbaa !115
  br label %30

30:                                               ; preds = %pmix_tma_strdup.exit25, %19
  %31 = getelementptr inbounds nuw i8, ptr %1, i64 16
  %32 = load i64, ptr %31, align 8, !tbaa !249
  %33 = getelementptr inbounds nuw i8, ptr %.0.i.i, i64 16
  store i64 %32, ptr %33, align 8, !tbaa !249
  %34 = getelementptr inbounds nuw i8, ptr %1, i64 24
  %35 = load i16, ptr %34, align 8, !tbaa !250
  store i16 %35, ptr %9, align 8, !tbaa !250
  %36 = getelementptr inbounds nuw i8, ptr %1, i64 26
  %37 = load i16, ptr %36, align 2, !tbaa !251
  store i16 %37, ptr %10, align 2, !tbaa !251
  store ptr %.0.i.i, ptr %0, align 8, !tbaa !297
  br label %pmix_bfrops_base_tma_device_distance_create.exit.thread

pmix_bfrops_base_tma_device_distance_create.exit.thread: ; preds = %pmix_tma_malloc.exit.i, %30
  %.0 = phi i32 [ 0, %30 ], [ -32, %pmix_tma_malloc.exit.i ]
  ret i32 %.0
}